target datalayout = "e-m:e-p270:32:32-p271:32:32-p272:64:64-i64:64-i128:128-f80:128-n8:16:32:64-S128"
target triple = "x86_64-pc-linux-gnu"

%struct.nghttp2_stream = type { i32, %struct.nghttp2_pq_entry, i64, i64, i64, i64, ptr, ptr, ptr, i64, i32, i32, i32, i32, i32, i32, i32, i16, i32, i8, i8, i8, i8, i8, i8 }
%struct.nghttp2_pq_entry = type { i64 }

@.str.1 = private unnamed_addr constant [114 x i8] c"generated/home/dtcxzyw/WorkSpace/Projects/compilers/llvm-opt-benchmark/bench/nghttp2/nghttp2/lib/nghttp2_stream.c\00", align 1
@.str.3 = private unnamed_addr constant [13 x i8] c"stream->item\00", align 1
@__PRETTY_FUNCTION__.nghttp2_stream_resume_deferred_item = private unnamed_addr constant [68 x i8] c"void nghttp2_stream_resume_deferred_item(nghttp2_stream *, uint8_t)\00", align 1

; Function Attrs: nounwind uwtable
define hidden void @nghttp2_stream_resume_deferred_item(ptr noundef %0, i8 noundef zeroext %1) #0 {
  %3 = alloca ptr, align 8
  %4 = alloca i8, align 1
  store ptr %0, ptr %3, align 8, !tbaa !3
  store i8 %1, ptr %4, align 1, !tbaa !10
  %5 = load ptr, ptr %3, align 8, !tbaa !3
  %6 = getelementptr inbounds nuw %struct.nghttp2_stream, ptr %5, i32 0, i32 8
  %7 = load ptr, ptr %6, align 8, !tbaa !22
  %8 = icmp ne ptr %7, null
  br i1 %8, label %9, label %10

9:                                                ; preds = %2
  br label %11

10:                                               ; preds = %2
  call void @__assert_fail(ptr noundef @.str.3, ptr noundef @.str.1, i32 noundef 102, ptr noundef @__PRETTY_FUNCTION__.nghttp2_stream_resume_deferred_item) #3
  unreachable

11:                                               ; preds = %9
  br label %12

12:                                               ; preds = %11
  br label %13

13:                                               ; preds = %12
  %14 = load ptr, ptr %3, align 8, !tbaa !3
  %15 = getelementptr inbounds nuw %struct.nghttp2_stream, ptr %14, i32 0, i32 19
  %16 = load i8, ptr %15, align 4, !tbaa !18
  %17 = zext i8 %16 to i32
  %18 = load i8, ptr %4, align 1, !tbaa !10
  %19 = zext i8 %18 to i32
  %20 = xor i32 %19, -1
  %21 = and i32 %17, %20
  %22 = trunc i32 %21 to i8
  %23 = load ptr, ptr %3, align 8, !tbaa !3
  %24 = getelementptr inbounds nuw %struct.nghttp2_stream, ptr %23, i32 0, i32 19
  store i8 %22, ptr %24, align 4, !tbaa !18
  ret void
}