; Function Attrs: nounwind uwtable
define hidden void @nghttp2_stream_resume_deferred_item(ptr noundef captures(none) %0, i8 noundef zeroext %1) local_unnamed_addr #3 {
  %3 = getelementptr inbounds nuw i8, ptr %0, i64 64
  %4 = load ptr, ptr %3, align 8, !tbaa !18
  %.not = icmp eq ptr %4, null
  br i1 %.not, label %5, label %6

5:                                                ; preds = %2
  tail call void @__assert_fail(ptr noundef nonnull @.str.3, ptr noundef nonnull @.str.1, i32 noundef 102, ptr noundef nonnull @__PRETTY_FUNCTION__.nghttp2_stream_resume_deferred_item) #7
  unreachable

6:                                                ; preds = %2
  %7 = getelementptr inbounds nuw i8, ptr %0, i64 116
  %8 = load i8, ptr %7, align 4, !tbaa !14
  %9 = xor i8 %1, -1
  %10 = and i8 %8, %9
  store i8 %10, ptr %7, align 4, !tbaa !14
  ret void
}